; Function Attrs: mustprogress nofree norecurse nounwind memory(readwrite, inaccessiblemem: none) uwtable
define void @_ZN6icu_776UMutex7cleanupEv() local_unnamed_addr #3 align 2 {
  %1 = load ptr, ptr @_ZN6icu_776UMutex9gListHeadE, align 8, !tbaa !9
  %.not6 = icmp eq ptr %1, null
  br i1 %.not6, label %._crit_edge, label %.lr.ph

._crit_edge:                                      ; preds = %.lr.ph, %0
  store ptr null, ptr @_ZN6icu_776UMutex9gListHeadE, align 8, !tbaa !9
  ret void

.lr.ph:                                           ; preds = %0, %.lr.ph
  %.07 = phi ptr [ %5, %.lr.ph ], [ %1, %0 ]
  %2 = getelementptr inbounds nuw i8, ptr %.07, i64 40
  %3 = load atomic i64, ptr %2 seq_cst, align 8
  store atomic i64 0, ptr %2 seq_cst, align 8
  %4 = getelementptr inbounds nuw i8, ptr %.07, i64 48
  %5 = load ptr, ptr %4, align 8, !tbaa !11
  store ptr null, ptr %4, align 8, !tbaa !11
  %.not = icmp eq ptr %5, null
  br i1 %.not, label %._crit_edge, label %.lr.ph, !llvm.loop !17
}